target datalayout = "e-m:e-p270:32:32-p271:32:32-p272:64:64-i64:64-i128:128-f80:128-n8:16:32:64-S128"
target triple = "x86_64-pc-linux-gnu"

@hf_diameter_3gpp_path = internal global i32 0, align 4
@ett_diameter_3gpp_path = internal global i32 0, align 4
@.str.957 = private unnamed_addr constant [6 x i8] c"Paths\00", align 1

; Function Attrs: nounwind uwtable
define internal i32 @dissect_diameter_3gpp_path(ptr noundef %0, ptr noundef %1, ptr noundef %2, ptr noundef %3) #0 {
  %5 = alloca i32, align 4
  %6 = alloca ptr, align 8
  %7 = alloca ptr, align 8
  %8 = alloca ptr, align 8
  %9 = alloca ptr, align 8
  %10 = alloca ptr, align 8
  %11 = alloca i32, align 4
  %12 = alloca i32, align 4
  %13 = alloca i32, align 4
  store ptr %0, ptr %6, align 8
  store ptr %1, ptr %7, align 8
  store ptr %2, ptr %8, align 8
  store ptr %3, ptr %9, align 8
  store i32 0, ptr %11, align 4
  %14 = load ptr, ptr %6, align 8
  %15 = call i32 @tvb_reported_length(ptr noundef %14)
  %16 = sub i32 %15, 1
  store i32 %16, ptr %13, align 4
  %17 = load ptr, ptr %8, align 8
  %18 = load ptr, ptr %6, align 8
  %19 = load i32, ptr %11, align 4
  %20 = load i32, ptr @ett_diameter_3gpp_path, align 4
  %21 = call ptr @proto_tree_add_subtree(ptr noundef %17, ptr noundef %18, i32 noundef %19, i32 noundef -1, i32 noundef %20, ptr noundef null, ptr noundef @.str.957)
  store ptr %21, ptr %10, align 8
  br label %22

22:                                               ; preds = %40, %4
  %23 = load i32, ptr %11, align 4
  %24 = load i32, ptr %13, align 4
  %25 = icmp slt i32 %23, %24
  br i1 %25, label %26, label %49

26:                                               ; preds = %22
  %27 = load ptr, ptr %6, align 8
  %28 = load i32, ptr %11, align 4
  %29 = call i32 @tvb_find_guint8(ptr noundef %27, i32 noundef %28, i32 noundef -1, i8 noundef zeroext 44)
  store i32 %29, ptr %12, align 4
  %30 = load i32, ptr %12, align 4
  %31 = icmp eq i32 %30, -1
  br i1 %31, label %32, label %40

32:                                               ; preds = %26
  %33 = load ptr, ptr %10, align 8
  %34 = load i32, ptr @hf_diameter_3gpp_path, align 4
  %35 = load ptr, ptr %6, align 8
  %36 = load i32, ptr %11, align 4
  %37 = load i32, ptr %12, align 4
  %38 = call ptr @proto_tree_add_item(ptr noundef %33, i32 noundef %34, ptr noundef %35, i32 noundef %36, i32 noundef %37, i32 noundef 0)
  %39 = load i32, ptr %13, align 4
  store i32 %39, ptr %5, align 4
  br label %52

40:                                               ; preds = %26
  %41 = load ptr, ptr %10, align 8
  %42 = load i32, ptr @hf_diameter_3gpp_path, align 4
  %43 = load ptr, ptr %6, align 8
  %44 = load i32, ptr %11, align 4
  %45 = load i32, ptr %12, align 4
  %46 = call ptr @proto_tree_add_item(ptr noundef %41, i32 noundef %42, ptr noundef %43, i32 noundef %44, i32 noundef %45, i32 noundef 0)
  %47 = load i32, ptr %12, align 4
  %48 = add i32 %47, 1
  store i32 %48, ptr %11, align 4
  br label %22, !llvm.loop !6

49:                                               ; preds = %22
  %50 = load ptr, ptr %6, align 8
  %51 = call i32 @tvb_reported_length(ptr noundef %50)
  store i32 %51, ptr %5, align 4
  br label %52

52:                                               ; preds = %49, %32
  %53 = load i32, ptr %5, align 4
  ret i32 %53
}